target datalayout = "e-m:e-p270:32:32-p271:32:32-p272:64:64-i64:64-i128:128-f80:128-n8:16:32:64-S128"
target triple = "x86_64-pc-linux-gnu"

%class.DefaultRndNumGenerator = type { %class.AbsRndNumGenerator, i64, %"class.std::__cxx11::basic_string", ptr }
%class.AbsRndNumGenerator = type { ptr }
%"class.std::__cxx11::basic_string" = type { %"struct.std::__cxx11::basic_string<char>::_Alloc_hider", i64, %union.anon }
%"struct.std::__cxx11::basic_string<char>::_Alloc_hider" = type { ptr }
%union.anon = type { i64, [8 x i8] }

; Function Attrs: mustprogress nounwind uwtable
define dso_local void @_ZN22DefaultRndNumGenerator10add_numberEiii(ptr noundef nonnull align 8 dereferenceable(56) %0, i32 noundef %1, i32 noundef %2, i32 noundef %3) #5 align 2 {
  %5 = alloca ptr, align 8
  %6 = alloca i32, align 4
  %7 = alloca i32, align 4
  %8 = alloca i32, align 4
  store ptr %0, ptr %5, align 8
  store i32 %1, ptr %6, align 4
  store i32 %2, ptr %7, align 4
  store i32 %3, ptr %8, align 4
  ret void
}

; Function Attrs: mustprogress uwtable
define dso_local noundef zeroext i1 @_ZN22DefaultRndNumGenerator12rnd_flipcoinEjPK6FilterPKNSt7__cxx1112basic_stringIcSt11char_traitsIcESaIcEEE(ptr noundef nonnull align 8 dereferenceable(56) %0, i32 noundef %1, ptr noundef %2, ptr noundef %3) unnamed_addr #4 align 2 {
  %5 = alloca i1, align 1
  %6 = alloca ptr, align 8
  %7 = alloca i32, align 4
  %8 = alloca ptr, align 8
  %9 = alloca ptr, align 8
  %10 = alloca i64, align 8
  %11 = alloca i8, align 1
  store ptr %0, ptr %6, align 8
  store i32 %1, ptr %7, align 4
  store ptr %2, ptr %8, align 8
  store ptr %3, ptr %9, align 8
  %12 = load ptr, ptr %6, align 8
  %13 = getelementptr inbounds %class.DefaultRndNumGenerator, ptr %12, i32 0, i32 1
  %14 = load i64, ptr %13, align 8
  store i64 %14, ptr %10, align 8
  %15 = getelementptr inbounds %class.DefaultRndNumGenerator, ptr %12, i32 0, i32 1
  %16 = load i64, ptr %15, align 8
  %17 = add i64 %16, 1
  store i64 %17, ptr %15, align 8
  %18 = load ptr, ptr %8, align 8
  %19 = icmp ne ptr %18, null
  br i1 %19, label %20, label %40

20:                                               ; preds = %4
  %21 = load ptr, ptr %8, align 8
  %22 = load ptr, ptr %21, align 8
  %23 = getelementptr inbounds ptr, ptr %22, i64 2
  %24 = load ptr, ptr %23, align 8
  %25 = call noundef zeroext i1 %24(ptr noundef nonnull align 8 dereferenceable(16) %21, i32 noundef 0)
  br i1 %25, label %26, label %29

26:                                               ; preds = %20
  %27 = load i64, ptr %10, align 8
  %28 = trunc i64 %27 to i32
  call void @_ZN22DefaultRndNumGenerator10add_numberEiii(ptr noundef nonnull align 8 dereferenceable(56) %12, i32 noundef 1, i32 noundef 2, i32 noundef %28)
  store i1 true, ptr %5, align 1
  br label %61

29:                                               ; preds = %20
  %30 = load ptr, ptr %8, align 8
  %31 = load ptr, ptr %30, align 8
  %32 = getelementptr inbounds ptr, ptr %31, i64 2
  %33 = load ptr, ptr %32, align 8
  %34 = call noundef zeroext i1 %33(ptr noundef nonnull align 8 dereferenceable(16) %30, i32 noundef 1)
  br i1 %34, label %35, label %38

35:                                               ; preds = %29
  %36 = load i64, ptr %10, align 8
  %37 = trunc i64 %36 to i32
  call void @_ZN22DefaultRndNumGenerator10add_numberEiii(ptr noundef nonnull align 8 dereferenceable(56) %12, i32 noundef 0, i32 noundef 2, i32 noundef %37)
  store i1 false, ptr %5, align 1
  br label %61

38:                                               ; preds = %29
  br label %39

39:                                               ; preds = %38
  br label %40

40:                                               ; preds = %39, %4
  %41 = load ptr, ptr %12, align 8
  %42 = getelementptr inbounds ptr, ptr %41, i64 10
  %43 = load ptr, ptr %42, align 8
  %44 = call noundef i64 %43(ptr noundef nonnull align 8 dereferenceable(56) %12)
  %45 = urem i64 %44, 100
  %46 = load i32, ptr %7, align 4
  %47 = zext i32 %46 to i64
  %48 = icmp ult i64 %45, %47
  %49 = zext i1 %48 to i8
  store i8 %49, ptr %11, align 1
  %50 = load i8, ptr %11, align 1
  %51 = trunc i8 %50 to i1
  br i1 %51, label %52, label %55

52:                                               ; preds = %40
  %53 = load i64, ptr %10, align 8
  %54 = trunc i64 %53 to i32
  call void @_ZN22DefaultRndNumGenerator10add_numberEiii(ptr noundef nonnull align 8 dereferenceable(56) %12, i32 noundef 1, i32 noundef 2, i32 noundef %54)
  br label %58

55:                                               ; preds = %40
  %56 = load i64, ptr %10, align 8
  %57 = trunc i64 %56 to i32
  call void @_ZN22DefaultRndNumGenerator10add_numberEiii(ptr noundef nonnull align 8 dereferenceable(56) %12, i32 noundef 0, i32 noundef 2, i32 noundef %57)
  br label %58

58:                                               ; preds = %55, %52
  %59 = load i8, ptr %11, align 1
  %60 = trunc i8 %59 to i1
  store i1 %60, ptr %5, align 1
  br label %61

61:                                               ; preds = %58, %35, %26
  %62 = load i1, ptr %5, align 1
  ret i1 %62
}