; Function Attrs: mustprogress uwtable
define dso_local noundef zeroext i1 @_ZN22DefaultRndNumGenerator12rnd_flipcoinEjPK6FilterPKNSt7__cxx1112basic_stringIcSt11char_traitsIcESaIcEEE(ptr noundef nonnull align 8 dereferenceable(56) %0, i32 noundef %1, ptr noundef %2, ptr nocapture readnone %3) unnamed_addr #3 align 2 {
  %5 = getelementptr inbounds i8, ptr %0, i64 8
  %6 = load i64, ptr %5, align 8
  %7 = add i64 %6, 1
  store i64 %7, ptr %5, align 8
  %.not = icmp eq ptr %2, null
  br i1 %.not, label %18, label %8

8:                                                ; preds = %4
  %9 = load ptr, ptr %2, align 8
  %10 = getelementptr inbounds i8, ptr %9, i64 16
  %11 = load ptr, ptr %10, align 8
  %12 = tail call noundef zeroext i1 %11(ptr noundef nonnull align 8 dereferenceable(16) %2, i32 noundef 0)
  br i1 %12, label %26, label %13

13:                                               ; preds = %8
  %14 = load ptr, ptr %2, align 8
  %15 = getelementptr inbounds i8, ptr %14, i64 16
  %16 = load ptr, ptr %15, align 8
  %17 = tail call noundef zeroext i1 %16(ptr noundef nonnull align 8 dereferenceable(16) %2, i32 noundef 1)
  br i1 %17, label %26, label %18

18:                                               ; preds = %13, %4
  %19 = load ptr, ptr %0, align 8
  %20 = getelementptr inbounds i8, ptr %19, i64 80
  %21 = load ptr, ptr %20, align 8
  %22 = tail call noundef i64 %21(ptr noundef nonnull align 8 dereferenceable(56) %0)
  %23 = urem i64 %22, 100
  %24 = zext i32 %1 to i64
  %25 = icmp ult i64 %23, %24
  br label %26

26:                                               ; preds = %18, %13, %8
  %.0 = phi i1 [ true, %8 ], [ false, %13 ], [ %25, %18 ]
  ret i1 %.0
}